; Function Attrs: nounwind sspstrong uwtable
define dso_local void @portio_list_destroy(ptr noundef readonly captures(none) %piolist) local_unnamed_addr #1 {
entry:
  %nr = getelementptr inbounds nuw i8, ptr %piolist, i64 24
  %0 = load i32, ptr %nr, align 8
  %cmp6.not = icmp eq i32 %0, 0
  br i1 %cmp6.not, label %for.end, label %for.body.lr.ph

for.body.lr.ph:                                   ; preds = %entry
  %regions = getelementptr inbounds nuw i8, ptr %piolist, i64 32
  br label %for.body

for.body:                                         ; preds = %for.body.lr.ph, %for.body
  %indvars.iv = phi i64 [ 0, %for.body.lr.ph ], [ %indvars.iv.next, %for.body ]
  %1 = load ptr, ptr %regions, align 8
  %arrayidx = getelementptr ptr, ptr %1, i64 %indvars.iv
  %2 = load ptr, ptr %arrayidx, align 8
  %add.ptr = getelementptr i8, ptr %2, i64 -48
  tail call void @object_unparent(ptr noundef %2) #11
  tail call void @object_unref(ptr noundef %add.ptr) #11
  %indvars.iv.next = add nuw nsw i64 %indvars.iv, 1
  %3 = load i32, ptr %nr, align 8
  %4 = zext i32 %3 to i64
  %cmp = icmp samesign ult i64 %indvars.iv.next, %4
  br i1 %cmp, label %for.body, label %for.end, !llvm.loop !10

for.end:                                          ; preds = %for.body, %entry
  %regions1 = getelementptr inbounds nuw i8, ptr %piolist, i64 32
  %5 = load ptr, ptr %regions1, align 8
  tail call void @g_free(ptr noundef %5) #11
  ret void
}